(lp0
S'poi'
p1
aS'exercised_stock_options'
p2
aS'total_stock_value'
p3
aS'TotalStock_RestStock_ExercStock'
p4
aS'Salary_Bonus'
p5
aS'bonus'
p6
aS'salary'
p7
aS'TotalStock_TotalPay'
p8
aS'deferred_income'
p9
a.